target datalayout = "e-m:e-p270:32:32-p271:32:32-p272:64:64-i64:64-i128:128-f80:128-n8:16:32:64-S128"
target triple = "x86_64-pc-linux-gnu"

; Function Attrs: mustprogress nounwind uwtable
define internal noundef i32 @_ZL20stbi__addsizes_validii(i32 noundef %0, i32 noundef %1) #0 {
  %3 = alloca i32, align 4
  %4 = alloca i32, align 4
  %5 = alloca i32, align 4
  store i32 %0, ptr %4, align 4, !tbaa !10
  store i32 %1, ptr %5, align 4, !tbaa !10
  %6 = load i32, ptr %5, align 4, !tbaa !10
  %7 = icmp slt i32 %6, 0
  br i1 %7, label %8, label %9

8:                                                ; preds = %2
  store i32 0, ptr %3, align 4
  br label %15

9:                                                ; preds = %2
  %10 = load i32, ptr %4, align 4, !tbaa !10
  %11 = load i32, ptr %5, align 4, !tbaa !10
  %12 = sub nsw i32 2147483647, %11
  %13 = icmp sle i32 %10, %12
  %14 = zext i1 %13 to i32
  store i32 %14, ptr %3, align 4
  br label %15

15:                                               ; preds = %9, %8
  %16 = load i32, ptr %3, align 4
  ret i32 %16
}

; Function Attrs: mustprogress nounwind uwtable
define internal noundef i32 @_ZL21stbi__mul2sizes_validii(i32 noundef %0, i32 noundef %1) #0 {
  %3 = alloca i32, align 4
  %4 = alloca i32, align 4
  %5 = alloca i32, align 4
  store i32 %0, ptr %4, align 4, !tbaa !10
  store i32 %1, ptr %5, align 4, !tbaa !10
  %6 = load i32, ptr %4, align 4, !tbaa !10
  %7 = icmp slt i32 %6, 0
  br i1 %7, label %11, label %8

8:                                                ; preds = %2
  %9 = load i32, ptr %5, align 4, !tbaa !10
  %10 = icmp slt i32 %9, 0
  br i1 %10, label %11, label %12

11:                                               ; preds = %8, %2
  store i32 0, ptr %3, align 4
  br label %22

12:                                               ; preds = %8
  %13 = load i32, ptr %5, align 4, !tbaa !10
  %14 = icmp eq i32 %13, 0
  br i1 %14, label %15, label %16

15:                                               ; preds = %12
  store i32 1, ptr %3, align 4
  br label %22

16:                                               ; preds = %12
  %17 = load i32, ptr %4, align 4, !tbaa !10
  %18 = load i32, ptr %5, align 4, !tbaa !10
  %19 = sdiv i32 2147483647, %18
  %20 = icmp sle i32 %17, %19
  %21 = zext i1 %20 to i32
  store i32 %21, ptr %3, align 4
  br label %22

22:                                               ; preds = %16, %15, %11
  %23 = load i32, ptr %3, align 4
  ret i32 %23
}

; Function Attrs: mustprogress nounwind uwtable
define internal noundef ptr @_ZL12stbi__mallocm(i64 noundef %0) #0 {
  %2 = alloca i64, align 8
  store i64 %0, ptr %2, align 8, !tbaa !47
  %3 = load i64, ptr %2, align 8, !tbaa !47
  %4 = call noalias ptr @malloc(i64 noundef %3) #26
  ret ptr %4
}

; Function Attrs: mustprogress nounwind uwtable
define internal noundef i32 @_ZL21stbi__mad4sizes_validiiiii(i32 noundef %0, i32 noundef %1, i32 noundef %2, i32 noundef %3, i32 noundef %4) #0 {
  %6 = alloca i32, align 4
  %7 = alloca i32, align 4
  %8 = alloca i32, align 4
  %9 = alloca i32, align 4
  %10 = alloca i32, align 4
  store i32 %0, ptr %6, align 4, !tbaa !10
  store i32 %1, ptr %7, align 4, !tbaa !10
  store i32 %2, ptr %8, align 4, !tbaa !10
  store i32 %3, ptr %9, align 4, !tbaa !10
  store i32 %4, ptr %10, align 4, !tbaa !10
  %11 = load i32, ptr %6, align 4, !tbaa !10
  %12 = load i32, ptr %7, align 4, !tbaa !10
  %13 = call noundef i32 @_ZL21stbi__mul2sizes_validii(i32 noundef %11, i32 noundef %12)
  %14 = icmp ne i32 %13, 0
  br i1 %14, label %15, label %42

15:                                               ; preds = %5
  %16 = load i32, ptr %6, align 4, !tbaa !10
  %17 = load i32, ptr %7, align 4, !tbaa !10
  %18 = mul nsw i32 %16, %17
  %19 = load i32, ptr %8, align 4, !tbaa !10
  %20 = call noundef i32 @_ZL21stbi__mul2sizes_validii(i32 noundef %18, i32 noundef %19)
  %21 = icmp ne i32 %20, 0
  br i1 %21, label %22, label %42

22:                                               ; preds = %15
  %23 = load i32, ptr %6, align 4, !tbaa !10
  %24 = load i32, ptr %7, align 4, !tbaa !10
  %25 = mul nsw i32 %23, %24
  %26 = load i32, ptr %8, align 4, !tbaa !10
  %27 = mul nsw i32 %25, %26
  %28 = load i32, ptr %9, align 4, !tbaa !10
  %29 = call noundef i32 @_ZL21stbi__mul2sizes_validii(i32 noundef %27, i32 noundef %28)
  %30 = icmp ne i32 %29, 0
  br i1 %30, label %31, label %42

31:                                               ; preds = %22
  %32 = load i32, ptr %6, align 4, !tbaa !10
  %33 = load i32, ptr %7, align 4, !tbaa !10
  %34 = mul nsw i32 %32, %33
  %35 = load i32, ptr %8, align 4, !tbaa !10
  %36 = mul nsw i32 %34, %35
  %37 = load i32, ptr %9, align 4, !tbaa !10
  %38 = mul nsw i32 %36, %37
  %39 = load i32, ptr %10, align 4, !tbaa !10
  %40 = call noundef i32 @_ZL20stbi__addsizes_validii(i32 noundef %38, i32 noundef %39)
  %41 = icmp ne i32 %40, 0
  br label %42

42:                                               ; preds = %31, %22, %15, %5
  %43 = phi i1 [ false, %22 ], [ false, %15 ], [ false, %5 ], [ %41, %31 ]
  %44 = zext i1 %43 to i32
  ret i32 %44
}

; Function Attrs: mustprogress nounwind uwtable
define internal noundef ptr @_ZL17stbi__malloc_mad4iiiii(i32 noundef %0, i32 noundef %1, i32 noundef %2, i32 noundef %3, i32 noundef %4) #0 {
  %6 = alloca ptr, align 8
  %7 = alloca i32, align 4
  %8 = alloca i32, align 4
  %9 = alloca i32, align 4
  %10 = alloca i32, align 4
  %11 = alloca i32, align 4
  store i32 %0, ptr %7, align 4, !tbaa !10
  store i32 %1, ptr %8, align 4, !tbaa !10
  store i32 %2, ptr %9, align 4, !tbaa !10
  store i32 %3, ptr %10, align 4, !tbaa !10
  store i32 %4, ptr %11, align 4, !tbaa !10
  %12 = load i32, ptr %7, align 4, !tbaa !10
  %13 = load i32, ptr %8, align 4, !tbaa !10
  %14 = load i32, ptr %9, align 4, !tbaa !10
  %15 = load i32, ptr %10, align 4, !tbaa !10
  %16 = load i32, ptr %11, align 4, !tbaa !10
  %17 = call noundef i32 @_ZL21stbi__mad4sizes_validiiiii(i32 noundef %12, i32 noundef %13, i32 noundef %14, i32 noundef %15, i32 noundef %16)
  %18 = icmp ne i32 %17, 0
  br i1 %18, label %20, label %19

19:                                               ; preds = %5
  store ptr null, ptr %6, align 8
  br label %32

20:                                               ; preds = %5
  %21 = load i32, ptr %7, align 4, !tbaa !10
  %22 = load i32, ptr %8, align 4, !tbaa !10
  %23 = mul nsw i32 %21, %22
  %24 = load i32, ptr %9, align 4, !tbaa !10
  %25 = mul nsw i32 %23, %24
  %26 = load i32, ptr %10, align 4, !tbaa !10
  %27 = mul nsw i32 %25, %26
  %28 = load i32, ptr %11, align 4, !tbaa !10
  %29 = add nsw i32 %27, %28
  %30 = sext i32 %29 to i64
  %31 = call noundef ptr @_ZL12stbi__mallocm(i64 noundef %30)
  store ptr %31, ptr %6, align 8
  br label %32

32:                                               ; preds = %20, %19
  %33 = load ptr, ptr %6, align 8
  ret ptr %33
}