; Function Attrs: mustprogress nofree nounwind willreturn memory(inaccessiblemem: readwrite) uwtable
define internal fastcc noalias noundef ptr @_ZL17stbi__malloc_mad4iiiii(i32 noundef %0, i32 noundef %1, i32 noundef %2, i32 noundef range(i32 -268435456, 268435456) %3) unnamed_addr #15 {
  %5 = or i32 %1, %0
  %or.cond.not.i.i = icmp sgt i32 %5, -1
  br i1 %or.cond.not.i.i, label %6, label %_ZL21stbi__mad4sizes_validiiiii.exit.thread

6:                                                ; preds = %4
  %7 = icmp eq i32 %1, 0
  br i1 %7, label %_ZL21stbi__mul2sizes_validii.exit.thread24.i, label %_ZL21stbi__mul2sizes_validii.exit.i

_ZL21stbi__mul2sizes_validii.exit.i:              ; preds = %6
  %8 = udiv i32 2147483647, %1
  %.not37.i = icmp sgt i32 %0, %8
  br i1 %.not37.i, label %_ZL21stbi__mad4sizes_validiiiii.exit.thread, label %_ZL21stbi__mul2sizes_validii.exit.thread24.i

_ZL21stbi__mul2sizes_validii.exit.thread24.i:     ; preds = %_ZL21stbi__mul2sizes_validii.exit.i, %6
  %9 = mul nsw i32 %1, %0
  %10 = or i32 %2, %9
  %or.cond.not.i16.i = icmp sgt i32 %10, -1
  br i1 %or.cond.not.i16.i, label %11, label %_ZL21stbi__mad4sizes_validiiiii.exit.thread

11:                                               ; preds = %_ZL21stbi__mul2sizes_validii.exit.thread24.i
  %12 = icmp eq i32 %2, 0
  br i1 %12, label %_ZL21stbi__mul2sizes_validii.exit18.thread29.i, label %_ZL21stbi__mul2sizes_validii.exit18.i

_ZL21stbi__mul2sizes_validii.exit18.i:            ; preds = %11
  %13 = udiv i32 2147483647, %2
  %.not.i = icmp sgt i32 %9, %13
  br i1 %.not.i, label %_ZL21stbi__mad4sizes_validiiiii.exit.thread, label %_ZL21stbi__mul2sizes_validii.exit18.thread29.i

_ZL21stbi__mul2sizes_validii.exit18.thread29.i:   ; preds = %_ZL21stbi__mul2sizes_validii.exit18.i, %11
  %14 = mul nsw i32 %9, %2
  %15 = or i32 %3, %14
  %or.cond.not.i19.i = icmp sgt i32 %15, -1
  br i1 %or.cond.not.i19.i, label %16, label %_ZL21stbi__mad4sizes_validiiiii.exit.thread

16:                                               ; preds = %_ZL21stbi__mul2sizes_validii.exit18.thread29.i
  %17 = icmp eq i32 %3, 0
  br i1 %17, label %_ZL21stbi__mad4sizes_validiiiii.exit, label %_ZL21stbi__mul2sizes_validii.exit21.i

_ZL21stbi__mul2sizes_validii.exit21.i:            ; preds = %16
  %18 = udiv i32 2147483647, %3
  %.not38.i = icmp sgt i32 %14, %18
  br i1 %.not38.i, label %_ZL21stbi__mad4sizes_validiiiii.exit.thread, label %_ZL21stbi__mad4sizes_validiiiii.exit

_ZL21stbi__mad4sizes_validiiiii.exit:             ; preds = %_ZL21stbi__mul2sizes_validii.exit21.i, %16
  %19 = mul nsw i32 %14, %3
  %20 = sext i32 %19 to i64
  %21 = tail call noalias noundef ptr @malloc(i64 noundef range(i64 -8589934588, 8589934589) %20) #42
  br label %_ZL21stbi__mad4sizes_validiiiii.exit.thread

_ZL21stbi__mad4sizes_validiiiii.exit.thread:      ; preds = %_ZL21stbi__mul2sizes_validii.exit18.thread29.i, %_ZL21stbi__mul2sizes_validii.exit.thread24.i, %4, %_ZL21stbi__mul2sizes_validii.exit.i, %_ZL21stbi__mul2sizes_validii.exit18.i, %_ZL21stbi__mul2sizes_validii.exit21.i, %_ZL21stbi__mad4sizes_validiiiii.exit
  %.0 = phi ptr [ %21, %_ZL21stbi__mad4sizes_validiiiii.exit ], [ null, %_ZL21stbi__mul2sizes_validii.exit21.i ], [ null, %_ZL21stbi__mul2sizes_validii.exit18.i ], [ null, %_ZL21stbi__mul2sizes_validii.exit.i ], [ null, %4 ], [ null, %_ZL21stbi__mul2sizes_validii.exit.thread24.i ], [ null, %_ZL21stbi__mul2sizes_validii.exit18.thread29.i ]
  ret ptr %.0
}